target datalayout = "e-m:e-p270:32:32-p271:32:32-p272:64:64-i64:64-i128:128-f80:128-n8:16:32:64-S128"
target triple = "x86_64-pc-linux-gnu"

%class.OopHandle = type { ptr }
%class.MemoryManager = type <{ ptr, [10 x ptr], i32, [4 x i8], ptr, %class.OopHandle, i8, [7 x i8] }>
%class.GCStatInfo = type <{ i64, i64, i64, ptr, ptr, i32, [4 x i8] }>
%class.MemoryUsage = type { i64, i64, i64, i64 }
%class.GCMemoryManager = type <{ %class.MemoryManager.base, [7 x i8], i64, %class.elapsedTimer, ptr, ptr, ptr, i32, i8, [10 x i8], i8 }>
%class.MemoryManager.base = type <{ ptr, [10 x ptr], i32, [4 x i8], ptr, %class.OopHandle, i8 }>
%class.elapsedTimer = type <{ i64, i64, i8, [7 x i8] }>
%class.MemoryPool = type <{ ptr, ptr, i32, [4 x i8], i64, i64, i8, [7 x i8], [5 x ptr], i32, [4 x i8], %class.MemoryUsage, %class.MemoryUsage, ptr, ptr, ptr, ptr, %class.OopHandle, i8, [7 x i8] }>
%class.GrowableArrayBase = type { i32, i32 }
%class.GrowableArrayView.27 = type { %class.GrowableArrayBase, ptr }

@_ZN13MemoryService11_pools_listE = external global ptr, align 8

; Function Attrs: mustprogress nounwind uwtable
define hidden void @_ZN10GCStatInfo12set_gc_usageEi11MemoryUsageb(ptr noundef nonnull align 8 dereferenceable(44) %0, i32 noundef %1, ptr noundef byval(%class.MemoryUsage) align 8 %2, i1 noundef zeroext %3) #1 align 2 {
  %5 = alloca ptr, align 8
  %6 = alloca i32, align 4
  %7 = alloca i8, align 1
  %8 = alloca ptr, align 8
  store ptr %0, ptr %5, align 8
  store i32 %1, ptr %6, align 4
  %9 = zext i1 %3 to i8
  store i8 %9, ptr %7, align 1
  %10 = load ptr, ptr %5, align 8
  %11 = load i8, ptr %7, align 1
  %12 = trunc i8 %11 to i1
  br i1 %12, label %13, label %16

13:                                               ; preds = %4
  %14 = getelementptr inbounds %class.GCStatInfo, ptr %10, i32 0, i32 3
  %15 = load ptr, ptr %14, align 8
  store ptr %15, ptr %8, align 8
  br label %19

16:                                               ; preds = %4
  %17 = getelementptr inbounds %class.GCStatInfo, ptr %10, i32 0, i32 4
  %18 = load ptr, ptr %17, align 8
  store ptr %18, ptr %8, align 8
  br label %19

19:                                               ; preds = %16, %13
  %20 = load ptr, ptr %8, align 8
  %21 = load i32, ptr %6, align 4
  %22 = sext i32 %21 to i64
  %23 = getelementptr inbounds %class.MemoryUsage, ptr %20, i64 %22
  call void @llvm.memcpy.p0.p0.i64(ptr align 8 %23, ptr align 8 %2, i64 32, i1 false)
  ret void
}

; Function Attrs: mustprogress nounwind uwtable
define linkonce_odr hidden noundef nonnull align 8 dereferenceable(8) ptr @_ZN17GrowableArrayViewIP10MemoryPoolE2atEi(ptr noundef nonnull align 8 dereferenceable(16) %0, i32 noundef %1) #1 comdat align 2 {
  %3 = alloca ptr, align 8
  %4 = alloca i32, align 4
  store ptr %0, ptr %3, align 8
  store i32 %1, ptr %4, align 4
  %5 = load ptr, ptr %3, align 8
  %6 = getelementptr inbounds %class.GrowableArrayView.27, ptr %5, i32 0, i32 1
  %7 = load ptr, ptr %6, align 8
  %8 = load i32, ptr %4, align 4
  %9 = sext i32 %8 to i64
  %10 = getelementptr inbounds ptr, ptr %7, i64 %9
  ret ptr %10
}

; Function Attrs: mustprogress nounwind uwtable
define linkonce_odr hidden noundef i32 @_ZNK17GrowableArrayBase6lengthEv(ptr noundef nonnull align 4 dereferenceable(8) %0) #1 comdat align 2 {
  %2 = alloca ptr, align 8
  store ptr %0, ptr %2, align 8
  %3 = load ptr, ptr %2, align 8
  %4 = getelementptr inbounds %class.GrowableArrayBase, ptr %3, i32 0, i32 0
  %5 = load i32, ptr %4, align 4
  ret i32 %5
}

; Function Attrs: mustprogress nounwind uwtable
define linkonce_odr hidden noundef i64 @_ZNK11MemoryUsage8max_sizeEv(ptr noundef nonnull align 8 dereferenceable(32) %0) #1 comdat align 2 {
  %2 = alloca ptr, align 8
  store ptr %0, ptr %2, align 8
  %3 = load ptr, ptr %2, align 8
  %4 = getelementptr inbounds %class.MemoryUsage, ptr %3, i32 0, i32 3
  %5 = load i64, ptr %4, align 8
  ret i64 %5
}

; Function Attrs: mustprogress nounwind uwtable
define linkonce_odr hidden noundef i64 @_ZNK11MemoryUsage9committedEv(ptr noundef nonnull align 8 dereferenceable(32) %0) #1 comdat align 2 {
  %2 = alloca ptr, align 8
  store ptr %0, ptr %2, align 8
  %3 = load ptr, ptr %2, align 8
  %4 = getelementptr inbounds %class.MemoryUsage, ptr %3, i32 0, i32 2
  %5 = load i64, ptr %4, align 8
  ret i64 %5
}

; Function Attrs: mustprogress nounwind uwtable
define linkonce_odr hidden noundef i64 @_ZNK11MemoryUsage4usedEv(ptr noundef nonnull align 8 dereferenceable(32) %0) #1 comdat align 2 {
  %2 = alloca ptr, align 8
  store ptr %0, ptr %2, align 8
  %3 = load ptr, ptr %2, align 8
  %4 = getelementptr inbounds %class.MemoryUsage, ptr %3, i32 0, i32 1
  %5 = load i64, ptr %4, align 8
  ret i64 %5
}

; Function Attrs: mustprogress nounwind uwtable
define linkonce_odr hidden noundef i64 @_ZNK11MemoryUsage9init_sizeEv(ptr noundef nonnull align 8 dereferenceable(32) %0) #1 comdat align 2 {
  %2 = alloca ptr, align 8
  store ptr %0, ptr %2, align 8
  %3 = load ptr, ptr %2, align 8
  %4 = getelementptr inbounds %class.MemoryUsage, ptr %3, i32 0, i32 0
  %5 = load i64, ptr %4, align 8
  ret i64 %5
}

; Function Attrs: mustprogress nounwind uwtable
define linkonce_odr hidden noundef ptr @_ZN10MemoryPool4nameEv(ptr noundef nonnull align 8 dereferenceable(201) %0) #1 comdat align 2 {
  %2 = alloca ptr, align 8
  store ptr %0, ptr %2, align 8
  %3 = load ptr, ptr %2, align 8
  %4 = getelementptr inbounds %class.MemoryPool, ptr %3, i32 0, i32 1
  %5 = load ptr, ptr %4, align 8
  ret ptr %5
}

; Function Attrs: mustprogress nounwind uwtable
define linkonce_odr hidden noundef ptr @_ZNK13MemoryManager4nameEv(ptr noundef nonnull align 8 dereferenceable(113) %0) #1 comdat align 2 {
  %2 = alloca ptr, align 8
  store ptr %0, ptr %2, align 8
  %3 = load ptr, ptr %2, align 8
  %4 = getelementptr inbounds %class.MemoryManager, ptr %3, i32 0, i32 4
  %5 = load ptr, ptr %4, align 8
  ret ptr %5
}

; Function Attrs: mustprogress nounwind uwtable
define linkonce_odr hidden void @_ZN10GCStatInfo19set_before_gc_usageEi11MemoryUsage(ptr noundef nonnull align 8 dereferenceable(44) %0, i32 noundef %1, ptr noundef byval(%class.MemoryUsage) align 8 %2) #1 comdat align 2 {
  %4 = alloca ptr, align 8
  %5 = alloca i32, align 4
  %6 = alloca %class.MemoryUsage, align 8
  store ptr %0, ptr %4, align 8
  store i32 %1, ptr %5, align 4
  %7 = load ptr, ptr %4, align 8
  %8 = load i32, ptr %5, align 4
  call void @llvm.memcpy.p0.p0.i64(ptr align 8 %6, ptr align 8 %2, i64 32, i1 false)
  call void @_ZN10GCStatInfo12set_gc_usageEi11MemoryUsageb(ptr noundef nonnull align 8 dereferenceable(44) %7, i32 noundef %8, ptr noundef byval(%class.MemoryUsage) align 8 %6, i1 noundef zeroext true)
  ret void
}

; Function Attrs: mustprogress nounwind uwtable
define linkonce_odr hidden noundef ptr @_ZN13MemoryService15get_memory_poolEi(i32 noundef %0) #1 comdat align 2 {
  %2 = alloca i32, align 4
  store i32 %0, ptr %2, align 4
  %3 = load ptr, ptr @_ZN13MemoryService11_pools_listE, align 8
  %4 = load i32, ptr %2, align 4
  %5 = call noundef nonnull align 8 dereferenceable(8) ptr @_ZN17GrowableArrayViewIP10MemoryPoolE2atEi(ptr noundef nonnull align 8 dereferenceable(16) %3, i32 noundef %4)
  %6 = load ptr, ptr %5, align 8
  ret ptr %6
}

; Function Attrs: mustprogress nounwind uwtable
define linkonce_odr hidden noundef i32 @_ZN13MemoryService16num_memory_poolsEv() #1 comdat align 2 {
  %1 = load ptr, ptr @_ZN13MemoryService11_pools_listE, align 8
  %2 = call noundef i32 @_ZNK17GrowableArrayBase6lengthEv(ptr noundef nonnull align 4 dereferenceable(8) %1)
  ret i32 %2
}

; Function Attrs: mustprogress nounwind uwtable
define linkonce_odr hidden void @_ZN10GCStatInfo14set_start_timeEl(ptr noundef nonnull align 8 dereferenceable(44) %0, i64 noundef %1) #1 comdat align 2 {
  %3 = alloca ptr, align 8
  %4 = alloca i64, align 8
  store ptr %0, ptr %3, align 8
  store i64 %1, ptr %4, align 8
  %5 = load ptr, ptr %3, align 8
  %6 = load i64, ptr %4, align 8
  %7 = getelementptr inbounds %class.GCStatInfo, ptr %5, i32 0, i32 1
  store i64 %6, ptr %7, align 8
  ret void
}

; Function Attrs: mustprogress nounwind uwtable
define linkonce_odr hidden void @_ZN10GCStatInfo9set_indexEm(ptr noundef nonnull align 8 dereferenceable(44) %0, i64 noundef %1) #1 comdat align 2 {
  %3 = alloca ptr, align 8
  %4 = alloca i64, align 8
  store ptr %0, ptr %3, align 8
  store i64 %1, ptr %4, align 8
  %5 = load ptr, ptr %3, align 8
  %6 = load i64, ptr %4, align 8
  %7 = getelementptr inbounds %class.GCStatInfo, ptr %5, i32 0, i32 0
  store i64 %6, ptr %7, align 8
  ret void
}

; Function Attrs: mustprogress nounwind uwtable
define hidden void @_ZN15GCMemoryManager8gc_beginEbbb(ptr noundef nonnull align 8 dereferenceable(191) %0, i1 noundef zeroext %1, i1 noundef zeroext %2, i1 noundef zeroext %3) #1 align 2 {
  %5 = alloca ptr, align 8
  %6 = alloca i8, align 1
  %7 = alloca i8, align 1
  %8 = alloca i8, align 1
  %9 = alloca i32, align 4
  %10 = alloca ptr, align 8
  %11 = alloca %class.MemoryUsage, align 8
  %12 = alloca %class.MemoryUsage, align 8
  store ptr %0, ptr %5, align 8
  %13 = zext i1 %1 to i8
  store i8 %13, ptr %6, align 1
  %14 = zext i1 %2 to i8
  store i8 %14, ptr %7, align 1
  %15 = zext i1 %3 to i8
  store i8 %15, ptr %8, align 1
  %16 = load ptr, ptr %5, align 8
  %17 = load i8, ptr %8, align 1
  %18 = trunc i8 %17 to i1
  br i1 %18, label %19, label %21

19:                                               ; preds = %4
  %20 = getelementptr inbounds %class.GCMemoryManager, ptr %16, i32 0, i32 3
  call void @_ZN12elapsedTimer5startEv(ptr noundef nonnull align 8 dereferenceable(17) %20)
  br label %21

21:                                               ; preds = %19, %4
  %22 = load i8, ptr %6, align 1
  %23 = trunc i8 %22 to i1
  br i1 %23, label %24, label %33

24:                                               ; preds = %21
  %25 = getelementptr inbounds %class.GCMemoryManager, ptr %16, i32 0, i32 6
  %26 = load ptr, ptr %25, align 8
  %27 = getelementptr inbounds %class.GCMemoryManager, ptr %16, i32 0, i32 2
  %28 = load i64, ptr %27, align 8
  %29 = add i64 %28, 1
  call void @_ZN10GCStatInfo9set_indexEm(ptr noundef nonnull align 8 dereferenceable(44) %26, i64 noundef %29)
  %30 = getelementptr inbounds %class.GCMemoryManager, ptr %16, i32 0, i32 6
  %31 = load ptr, ptr %30, align 8
  %32 = call noundef i64 @_ZN10Management9timestampEv()
  call void @_ZN10GCStatInfo14set_start_timeEl(ptr noundef nonnull align 8 dereferenceable(44) %31, i64 noundef %32)
  br label %33

33:                                               ; preds = %24, %21
  %34 = load i8, ptr %7, align 1
  %35 = trunc i8 %34 to i1
  br i1 %35, label %36, label %69

36:                                               ; preds = %33
  store i32 0, ptr %9, align 4
  br label %37

37:                                               ; preds = %65, %36
  %38 = load i32, ptr %9, align 4
  %39 = call noundef i32 @_ZN13MemoryService16num_memory_poolsEv()
  %40 = icmp slt i32 %38, %39
  br i1 %40, label %41, label %68

41:                                               ; preds = %37
  %42 = load i32, ptr %9, align 4
  %43 = call noundef ptr @_ZN13MemoryService15get_memory_poolEi(i32 noundef %42)
  store ptr %43, ptr %10, align 8
  %44 = load ptr, ptr %10, align 8
  %45 = load ptr, ptr %44, align 8
  %46 = getelementptr inbounds ptr, ptr %45, i64 4
  %47 = load ptr, ptr %46, align 8
  call void %47(ptr dead_on_unwind writable sret(%class.MemoryUsage) align 8 %11, ptr noundef nonnull align 8 dereferenceable(201) %44)
  %48 = getelementptr inbounds %class.GCMemoryManager, ptr %16, i32 0, i32 6
  %49 = load ptr, ptr %48, align 8
  %50 = load i32, ptr %9, align 4
  call void @llvm.memcpy.p0.p0.i64(ptr align 8 %12, ptr align 8 %11, i64 32, i1 false)
  call void @_ZN10GCStatInfo19set_before_gc_usageEi11MemoryUsage(ptr noundef nonnull align 8 dereferenceable(44) %49, i32 noundef %50, ptr noundef byval(%class.MemoryUsage) align 8 %12)
  br label %51

51:                                               ; preds = %41
  %52 = call noundef ptr @_ZNK13MemoryManager4nameEv(ptr noundef nonnull align 8 dereferenceable(113) %16)
  %53 = call noundef ptr @_ZNK13MemoryManager4nameEv(ptr noundef nonnull align 8 dereferenceable(113) %16)
  %54 = call i64 @strlen(ptr noundef %53) #11
  %55 = load ptr, ptr %10, align 8
  %56 = call noundef ptr @_ZN10MemoryPool4nameEv(ptr noundef nonnull align 8 dereferenceable(201) %55)
  %57 = load ptr, ptr %10, align 8
  %58 = call noundef ptr @_ZN10MemoryPool4nameEv(ptr noundef nonnull align 8 dereferenceable(201) %57)
  %59 = call i64 @strlen(ptr noundef %58) #11
  %60 = call noundef i64 @_ZNK11MemoryUsage9init_sizeEv(ptr noundef nonnull align 8 dereferenceable(32) %11)
  %61 = call noundef i64 @_ZNK11MemoryUsage4usedEv(ptr noundef nonnull align 8 dereferenceable(32) %11)
  %62 = call noundef i64 @_ZNK11MemoryUsage9committedEv(ptr noundef nonnull align 8 dereferenceable(32) %11)
  %63 = call noundef i64 @_ZNK11MemoryUsage8max_sizeEv(ptr noundef nonnull align 8 dereferenceable(32) %11)
  call void asm sideeffect ".altmacro\0A.macro _SDT_SIGN x\0A.pushsection .note.stapsdt,\22\22,\22note\22\0A.iflt \\x\0A.ascii \22-\22\0A.endif\0A.popsection\0A.endm\0A.macro _SDT_SIZE_ x\0A.pushsection .note.stapsdt,\22\22,\22note\22\0A.ascii \22\\x\22\0A.popsection\0A.endm\0A.macro _SDT_SIZE x\0A_SDT_SIZE_ %((-(-\\x*((-\\x>0)-(-\\x<0))))>>8)\0A.endm\0A.macro _SDT_TYPE_ x\0A.pushsection .note.stapsdt,\22\22,\22note\22\0A.ifc 8,\\x\0A.ascii \22f\22\0A.endif\0A.ascii \22@\22\0A.popsection\0A.endm\0A.macro _SDT_TYPE x\0A_SDT_TYPE_ %((\\x)&(0xff))\0A.endm\0A990: nop\0A.pushsection .note.stapsdt,\22?\22,\22note\22\0A.balign 4\0A.4byte 992f-991f,994f-993f,3\0A991: .asciz \22stapsdt\22\0A992: .balign 4\0A993: .8byte 990b\0A.8byte _.stapsdt.base\0A.8byte 0\0A.asciz \22hotspot\22\0A.asciz \22mem__pool__gc__begin\22\0A_SDT_SIGN ${0:n}\0A_SDT_SIZE ${0:n}\0A_SDT_TYPE ${0:n}\0A.ascii \22$1\22\0A.ascii \22\\x20\22\0A_SDT_SIGN ${2:n}\0A_SDT_SIZE ${2:n}\0A_SDT_TYPE ${2:n}\0A.ascii \22$3\22\0A.ascii \22\\x20\22\0A_SDT_SIGN ${4:n}\0A_SDT_SIZE ${4:n}\0A_SDT_TYPE ${4:n}\0A.ascii \22$5\22\0A.ascii \22\\x20\22\0A_SDT_SIGN ${6:n}\0A_SDT_SIZE ${6:n}\0A_SDT_TYPE ${6:n}\0A.ascii \22$7\22\0A.ascii \22\\x20\22\0A_SDT_SIGN ${8:n}\0A_SDT_SIZE ${8:n}\0A_SDT_TYPE ${8:n}\0A.ascii \22$9\22\0A.ascii \22\\x20\22\0A_SDT_SIGN ${10:n}\0A_SDT_SIZE ${10:n}\0A_SDT_TYPE ${10:n}\0A.ascii \22$11\22\0A.ascii \22\\x20\22\0A_SDT_SIGN ${12:n}\0A_SDT_SIZE ${12:n}\0A_SDT_TYPE ${12:n}\0A.ascii \22$13\22\0A.ascii \22\\x20\22\0A_SDT_SIGN ${14:n}\0A_SDT_SIZE ${14:n}\0A_SDT_TYPE ${14:n}\0A.ascii \22$15\22\0A.ascii \22\\x00\22\0A.purgem _SDT_SIGN\0A.purgem _SDT_SIZE_\0A.purgem _SDT_SIZE\0A.purgem _SDT_TYPE_\0A.purgem _SDT_TYPE\0A994: .balign 4\0A.popsection\0A", "n,norfxy,n,norfxy,n,norfxy,n,norfxy,n,norfxy,n,norfxy,n,norfxy,n,norfxy,~{dirflag},~{fpsr},~{flags}"(i32 -2053, ptr %52, i32 -2049, i64 %54, i32 -2053, ptr %56, i32 -2049, i64 %59, i32 -2049, i64 %60, i32 -2049, i64 %61, i32 -2049, i64 %62, i32 -2049, i64 %63) #9, !srcloc !9
  call void asm sideeffect ".ifndef _.stapsdt.base\0A.pushsection .stapsdt.base,\22aG\22,\22progbits\22,.stapsdt.base,comdat\0A.weak _.stapsdt.base\0A.hidden _.stapsdt.base\0A_.stapsdt.base: .space 1\0A.size _.stapsdt.base,1\0A.popsection\0A.endif\0A", "~{dirflag},~{fpsr},~{flags}"() #9, !srcloc !10
  br label %64

64:                                               ; preds = %51
  br label %65

65:                                               ; preds = %64
  %66 = load i32, ptr %9, align 4
  %67 = add nsw i32 %66, 1
  store i32 %67, ptr %9, align 4
  br label %37, !llvm.loop !11

68:                                               ; preds = %37
  br label %69

69:                                               ; preds = %68, %33
  ret void
}