; Function Attrs: mustprogress nounwind uwtable
define hidden void @_ZN15GCMemoryManager8gc_beginEbbb(ptr noundef nonnull align 8 dereferenceable(191) %0, i1 noundef zeroext %1, i1 noundef zeroext %2, i1 noundef zeroext %3) local_unnamed_addr #2 align 2 {
  %5 = alloca %class.MemoryUsage, align 8
  br i1 %3, label %6, label %8

6:                                                ; preds = %4
  %7 = getelementptr inbounds i8, ptr %0, i64 128
  tail call void @_ZN12elapsedTimer5startEv(ptr noundef nonnull align 8 dereferenceable(17) %7) #13
  br label %8

8:                                                ; preds = %6, %4
  br i1 %1, label %9, label %18

9:                                                ; preds = %8
  %10 = getelementptr inbounds i8, ptr %0, i64 168
  %11 = load ptr, ptr %10, align 8
  %12 = getelementptr inbounds i8, ptr %0, i64 120
  %13 = load i64, ptr %12, align 8
  %14 = add i64 %13, 1
  store i64 %14, ptr %11, align 8
  %15 = load ptr, ptr %10, align 8
  %16 = tail call noundef i64 @_ZN10Management9timestampEv() #13
  %17 = getelementptr inbounds i8, ptr %15, i64 8
  store i64 %16, ptr %17, align 8
  br label %18

18:                                               ; preds = %9, %8
  br i1 %2, label %.preheader, label %.loopexit

.preheader:                                       ; preds = %18
  %19 = load ptr, ptr @_ZN13MemoryService11_pools_listE, align 8
  %20 = load i32, ptr %19, align 4
  %21 = icmp sgt i32 %20, 0
  br i1 %21, label %.lr.ph, label %.loopexit

.lr.ph:                                           ; preds = %.preheader
  %22 = getelementptr inbounds i8, ptr %0, i64 168
  %23 = getelementptr inbounds i8, ptr %0, i64 96
  %24 = getelementptr inbounds i8, ptr %5, i64 8
  %25 = getelementptr inbounds i8, ptr %5, i64 16
  %26 = getelementptr inbounds i8, ptr %5, i64 24
  br label %27

27:                                               ; preds = %.lr.ph, %27
  %indvars.iv = phi i64 [ 0, %.lr.ph ], [ %indvars.iv.next, %27 ]
  %28 = phi ptr [ %19, %.lr.ph ], [ %47, %27 ]
  %29 = getelementptr inbounds i8, ptr %28, i64 8
  %30 = load ptr, ptr %29, align 8
  %31 = getelementptr inbounds ptr, ptr %30, i64 %indvars.iv
  %32 = load ptr, ptr %31, align 8
  %33 = load ptr, ptr %32, align 8
  %34 = getelementptr inbounds i8, ptr %33, i64 32
  %35 = load ptr, ptr %34, align 8
  call void %35(ptr dead_on_unwind nonnull writable sret(%class.MemoryUsage) align 8 %5, ptr noundef nonnull align 8 dereferenceable(201) %32) #13
  %36 = load ptr, ptr %22, align 8
  %.0.in.i.i = getelementptr inbounds i8, ptr %36, i64 24
  %.0.i.i = load ptr, ptr %.0.in.i.i, align 8
  %37 = getelementptr inbounds %class.MemoryUsage, ptr %.0.i.i, i64 %indvars.iv
  call void @llvm.memmove.p0.p0.i64(ptr noundef nonnull align 8 dereferenceable(32) %37, ptr noundef nonnull align 8 dereferenceable(32) %5, i64 32, i1 false)
  %38 = load ptr, ptr %23, align 8
  %39 = call i64 @strlen(ptr noundef nonnull dereferenceable(1) %38) #15
  %40 = getelementptr inbounds i8, ptr %32, i64 8
  %41 = load ptr, ptr %40, align 8
  %42 = call i64 @strlen(ptr noundef nonnull dereferenceable(1) %41) #15
  %43 = load i64, ptr %5, align 8
  %44 = load i64, ptr %24, align 8
  %45 = load i64, ptr %25, align 8
  %46 = load i64, ptr %26, align 8
  call void asm sideeffect ".altmacro\0A.macro _SDT_SIGN x\0A.pushsection .note.stapsdt,\22\22,\22note\22\0A.iflt \\x\0A.ascii \22-\22\0A.endif\0A.popsection\0A.endm\0A.macro _SDT_SIZE_ x\0A.pushsection .note.stapsdt,\22\22,\22note\22\0A.ascii \22\\x\22\0A.popsection\0A.endm\0A.macro _SDT_SIZE x\0A_SDT_SIZE_ %((-(-\\x*((-\\x>0)-(-\\x<0))))>>8)\0A.endm\0A.macro _SDT_TYPE_ x\0A.pushsection .note.stapsdt,\22\22,\22note\22\0A.ifc 8,\\x\0A.ascii \22f\22\0A.endif\0A.ascii \22@\22\0A.popsection\0A.endm\0A.macro _SDT_TYPE x\0A_SDT_TYPE_ %((\\x)&(0xff))\0A.endm\0A990: nop\0A.pushsection .note.stapsdt,\22?\22,\22note\22\0A.balign 4\0A.4byte 992f-991f,994f-993f,3\0A991: .asciz \22stapsdt\22\0A992: .balign 4\0A993: .8byte 990b\0A.8byte _.stapsdt.base\0A.8byte 0\0A.asciz \22hotspot\22\0A.asciz \22mem__pool__gc__begin\22\0A_SDT_SIGN ${0:n}\0A_SDT_SIZE ${0:n}\0A_SDT_TYPE ${0:n}\0A.ascii \22$1\22\0A.ascii \22\\x20\22\0A_SDT_SIGN ${2:n}\0A_SDT_SIZE ${2:n}\0A_SDT_TYPE ${2:n}\0A.ascii \22$3\22\0A.ascii \22\\x20\22\0A_SDT_SIGN ${4:n}\0A_SDT_SIZE ${4:n}\0A_SDT_TYPE ${4:n}\0A.ascii \22$5\22\0A.ascii \22\\x20\22\0A_SDT_SIGN ${6:n}\0A_SDT_SIZE ${6:n}\0A_SDT_TYPE ${6:n}\0A.ascii \22$7\22\0A.ascii \22\\x20\22\0A_SDT_SIGN ${8:n}\0A_SDT_SIZE ${8:n}\0A_SDT_TYPE ${8:n}\0A.ascii \22$9\22\0A.ascii \22\\x20\22\0A_SDT_SIGN ${10:n}\0A_SDT_SIZE ${10:n}\0A_SDT_TYPE ${10:n}\0A.ascii \22$11\22\0A.ascii \22\\x20\22\0A_SDT_SIGN ${12:n}\0A_SDT_SIZE ${12:n}\0A_SDT_TYPE ${12:n}\0A.ascii \22$13\22\0A.ascii \22\\x20\22\0A_SDT_SIGN ${14:n}\0A_SDT_SIZE ${14:n}\0A_SDT_TYPE ${14:n}\0A.ascii \22$15\22\0A.ascii \22\\x00\22\0A.purgem _SDT_SIGN\0A.purgem _SDT_SIZE_\0A.purgem _SDT_SIZE\0A.purgem _SDT_TYPE_\0A.purgem _SDT_TYPE\0A994: .balign 4\0A.popsection\0A", "n,norfxy,n,norfxy,n,norfxy,n,norfxy,n,norfxy,n,norfxy,n,norfxy,n,norfxy,~{dirflag},~{fpsr},~{flags}"(i32 -2053, ptr %38, i32 -2049, i64 %39, i32 -2053, ptr %41, i32 -2049, i64 %42, i32 -2049, i64 %43, i32 -2049, i64 %44, i32 -2049, i64 %45, i32 -2049, i64 %46) #13, !srcloc !10
  call void asm sideeffect ".ifndef _.stapsdt.base\0A.pushsection .stapsdt.base,\22aG\22,\22progbits\22,.stapsdt.base,comdat\0A.weak _.stapsdt.base\0A.hidden _.stapsdt.base\0A_.stapsdt.base: .space 1\0A.size _.stapsdt.base,1\0A.popsection\0A.endif\0A", "~{dirflag},~{fpsr},~{flags}"() #13, !srcloc !11
  %indvars.iv.next = add nuw nsw i64 %indvars.iv, 1
  %47 = load ptr, ptr @_ZN13MemoryService11_pools_listE, align 8
  %48 = load i32, ptr %47, align 4
  %49 = sext i32 %48 to i64
  %50 = icmp slt i64 %indvars.iv.next, %49
  br i1 %50, label %27, label %.loopexit, !llvm.loop !12

.loopexit:                                        ; preds = %27, %.preheader, %18
  ret void
}